-----BEGIN CERTIFICATE-----
MIIDijCCAnKgAwIBAgIBATANBgkqhkiG9w0BAQUFADBWMQswCQYDVQQGEwJVUzEp
MCcGA1UEChMgVW5pZmllZCBUZXN0aW5nIEluaXRpYXRpdmUgKFVUSSkxHDAaBgNV
BAMTE0dlb1RydXN0IENBIGZvciBVVEkwHhcNMDQwMTIzMDUwMDAwWhcNMjQwMTI0
MDQ1NTAwWjBWMQswCQYDVQQGEwJVUzEpMCcGA1UEChMgVW5pZmllZCBUZXN0aW5n
IEluaXRpYXRpdmUgKFVUSSkxHDAaBgNVBAMTE0dlb1RydXN0IENBIGZvciBVVEkw
ggEiMA0GCSqGSIb3DQEBAQUAA4IBDwAwggEKAoIBAQC5S48KaVWnm0PgvIHC30fx
0Gk4PpVOYwpr3ZJsx+Y6fzv8dtw+BqFoNr+O8r7pLXGaYSpgRrMpUTgriaeqzUNc
0mVKTlsRN9vF7IeVbrLMvUIca6JjXKypS3UvVY8e0tZGTDKtxAeGF9TZxA2bgHHL
FfjdDMIkXEwMbJ6siMneBvmfEVhjmfQ1vHUETO30KkqlgXoUH++RZeQfoW4NwLap
WXH/Vlt9FNRnZnTtrH+mE2d3VypXlnfzWCjKbg8F8AruDOabb4XbqgGcApFyWjrf
wpqxVsIK0Kmpn8kD39N4RrL64yykFqLtKUfVWjTDnRYDaEzgg1enHFILNchvmurF
AgMBAAGjYzBhMA8GA1UdEwEB/wQFMAMBAf8wHQYDVR0OBBYEFPFcwA1qcTemmYQ1
OFLiU3NncdYwMB8GA1UdIwQYMBaAFPFcwA1qcTemmYQ1OFLiU3NncdYwMA4GA1Ud
DwEB/wQEAwIBhjANBgkqhkiG9w0BAQUFAAOCAQEAS6P/E5aFEJHhhpB8pM1ynld6
YnAFHDZB0rwV6DH3Lk2wchB58hN0eil+3XaEewzVKCSV214WTh0IngvJoYD9Pk57
YIzNP2RrH54Dw/ZDFJ7mCsWstV0qaXLjxjP8TWc1Im9QIzKbnyzKxAZKrN+DB7/m
ucOl3uDOBA/+lQOxPwxr9ziFjxxoCLOg3AWldzVVFCJOYzylz7Hf3LMvlSidz0by
mjo8mQqv8U350BQZ3CHj0bOnOUrpv2tSjyq1GQ3a4hiNHu2ExPZbLh1TbX5j6Wrp
WBOrp4/j2ZfYDdjeS2Y52VmYyy0IVo0taRRj5WzSDD7S+Gz3IjJ+SPKRDq7nBA==
-----END CERTIFICATE-----
Certificate:
    Data:
        Version: 3 (0x2)
        Serial Number: 1 (0x1)
        Signature Algorithm: sha1WithRSAEncryption
        Issuer: C=US, O=Unified Testing Initiative (UTI), CN=GeoTrust CA for UTI
        Validity
            Not Before: Jan 23 05:00:00 2004 GMT
            Not After : Jan 24 04:55:00 2024 GMT
        Subject: C=US, O=Unified Testing Initiative (UTI), CN=GeoTrust CA for UTI
        Subject Public Key Info:
            Public Key Algorithm: rsaEncryption
            RSA Public Key: (2048 bit)
                Modulus (2048 bit):
                    00:b9:4b:8f:0a:69:55:a7:9b:43:e0:bc:81:c2:df:
                    47:f1:d0:69:38:3e:95:4e:63:0a:6b:dd:92:6c:c7:
                    e6:3a:7f:3b:fc:76:dc:3e:06:a1:68:36:bf:8e:f2:
                    be:e9:2d:71:9a:61:2a:60:46:b3:29:51:38:2b:89:
                    a7:aa:cd:43:5c:d2:65:4a:4e:5b:11:37:db:c5:ec:
                    87:95:6e:b2:cc:bd:42:1c:6b:a2:63:5c:ac:a9:4b:
                    75:2f:55:8f:1e:d2:d6:46:4c:32:ad:c4:07:86:17:
                    d4:d9:c4:0d:9b:80:71:cb:15:f8:dd:0c:c2:24:5c:
                    4c:0c:6c:9e:ac:88:c9:de:06:f9:9f:11:58:63:99:
                    f4:35:bc:75:04:4c:ed:f4:2a:4a:a5:81:7a:14:1f:
                    ef:91:65:e4:1f:a1:6e:0d:c0:b6:a9:59:71:ff:56:
                    5b:7d:14:d4:67:66:74:ed:ac:7f:a6:13:67:77:57:
                    2a:57:96:77:f3:58:28:ca:6e:0f:05:f0:0a:ee:0c:
                    e6:9b:6f:85:db:aa:01:9c:02:91:72:5a:3a:df:c2:
                    9a:b1:56:c2:0a:d0:a9:a9:9f:c9:03:df:d3:78:46:
                    b2:fa:e3:2c:a4:16:a2:ed:29:47:d5:5a:34:c3:9d:
                    16:03:68:4c:e0:83:57:a7:1c:52:0b:35:c8:6f:9a:
                    ea:c5
                Exponent: 65537 (0x10001)
        X509v3 extensions:
            X509v3 Basic Constraints: critical
                CA:TRUE
            X509v3 Subject Key Identifier: 
                F1:5C:C0:0D:6A:71:37:A6:99:84:35:38:52:E2:53:73:67:71:D6:30
            X509v3 Authority Key Identifier: 
                keyid:F1:5C:C0:0D:6A:71:37:A6:99:84:35:38:52:E2:53:73:67:71:D6:30

            X509v3 Key Usage: critical
                Digital Signature, Certificate Sign, CRL Sign
    Signature Algorithm: sha1WithRSAEncryption
        4b:a3:ff:13:96:85:10:91:e1:86:90:7c:a4:cd:72:9e:57:7a:
        62:70:05:1c:36:41:d2:bc:15:e8:31:f7:2e:4d:b0:72:10:79:
        f2:13:74:7a:29:7e:dd:76:84:7b:0c:d5:28:24:95:db:5e:16:
        4e:1d:08:9e:0b:c9:a1:80:fd:3e:4e:7b:60:8c:cd:3f:64:6b:
        1f:9e:03:c3:f6:43:14:9e:e6:0a:c5:ac:b5:5d:2a:69:72:e3:
        c6:33:fc:4d:67:35:22:6f:50:23:32:9b:9f:2c:ca:c4:06:4a:
        ac:df:83:07:bf:e6:b9:c3:a5:de:e0:ce:04:0f:fe:95:03:b1:
        3f:0c:6b:f7:38:85:8f:1c:68:08:b3:a0:dc:05:a5:77:35:55:
        14:22:4e:63:3c:a5:cf:b1:df:dc:b3:2f:95:28:9d:cf:46:f2:
        9a:3a:3c:99:0a:af:f1:4d:f9:d0:14:19:dc:21:e3:d1:b3:a7:
        39:4a:e9:bf:6b:52:8f:2a:b5:19:0d:da:e2:18:8d:1e:ed:84:
        c4:f6:5b:2e:1d:53:6d:7e:63:e9:6a:e9:58:13:ab:a7:8f:e3:
        d9:97:d8:0d:d8:de:4b:66:39:d9:59:98:cb:2d:08:56:8d:2d:
        69:14:63:e5:6c:d2:0c:3e:d2:f8:6c:f7:22:32:7e:48:f2:91:
        0e:ae:e7:04
SHA1 Fingerprint=88:7A:79:40:6A:2E:61:4F:B6:5F:A6:25:5E:14:11:E4:E1:3A:76:0A
