-----BEGIN CERTIFICATE-----
MIIGKTCCBRGgAwIBAgIQZBvoIM4CCBPzLU0tldZ+ZzANBgkqhkiG9w0BAQUFADCB
yjELMAkGA1UEBhMCVVMxFzAVBgNVBAoTDlZlcmlTaWduLCBJbmMuMR8wHQYDVQQL
ExZWZXJpU2lnbiBUcnVzdCBOZXR3b3JrMTowOAYDVQQLEzEoYykgMjAwNiBWZXJp
U2lnbiwgSW5jLiAtIEZvciBhdXRob3JpemVkIHVzZSBvbmx5MUUwQwYDVQQDEzxW
ZXJpU2lnbiBDbGFzcyAzIFB1YmxpYyBQcmltYXJ5IENlcnRpZmljYXRpb24gQXV0
aG9yaXR5IC0gRzUwHhcNMTAwMjA4MDAwMDAwWhcNMjAwMjA3MjM1OTU5WjCBvDEL
MAkGA1UEBhMCVVMxFzAVBgNVBAoTDlZlcmlTaWduLCBJbmMuMR8wHQYDVQQLExZW
ZXJpU2lnbiBUcnVzdCBOZXR3b3JrMTswOQYDVQQLEzJUZXJtcyBvZiB1c2UgYXQg
aHR0cHM6Ly93d3cudmVyaXNpZ24uY29tL3JwYSAoYykxMDE2MDQGA1UEAxMtVmVy
aVNpZ24gQ2xhc3MgMyBJbnRlcm5hdGlvbmFsIFNlcnZlciBDQSAtIEczMIIBIjAN
BgkqhkiG9w0BAQEFAAOCAQ8AMIIBCgKCAQEAmdacYvAV9IGaQQhZjxOdF8mfUdza
sVLv/+NB3eDfxCjG4615HycQmLi7IJfBKERBD+qpqFLPTU4bi7u1xHbZzFYG7rNV
ICreFY1xy1TIbxfNiQDk3P/hwB9ocenHKS5+vDv85burJlSLZpDN9pK5MSSAvJ5s
1fx+0uFLjNxC+kRLX/gYtS4w9D0SmNNiBXNUppyiHb5SgzoHRsQ7AlYhv/JRT9Cm
mTnprqU/iZucff5NYAclIPe712mDK4KTQzfZg0EbawurSmaET0qO3n40mY5o1so5
BptMs5pITRNGtFghBMT7oE2sLktiEuP7TfbJUQABH/weaoEqOOC5T9YtRQIDAQAB
o4ICFTCCAhEwEgYDVR0TAQH/BAgwBgEB/wIBADBwBgNVHSAEaTBnMGUGC2CGSAGG
+EUBBxcDMFYwKAYIKwYBBQUHAgEWHGh0dHBzOi8vd3d3LnZlcmlzaWduLmNvbS9j
cHMwKgYIKwYBBQUHAgIwHhocaHR0cHM6Ly93d3cudmVyaXNpZ24uY29tL3JwYTAO
BgNVHQ8BAf8EBAMCAQYwbQYIKwYBBQUHAQwEYTBfoV2gWzBZMFcwVRYJaW1hZ2Uv
Z2lmMCEwHzAHBgUrDgMCGgQUj+XTGoasjY5rw8+AatRIGCx7GS4wJRYjaHR0cDov
L2xvZ28udmVyaXNpZ24uY29tL3ZzbG9nby5naWYwNAYDVR0lBC0wKwYIKwYBBQUH
AwEGCCsGAQUFBwMCBglghkgBhvhCBAEGCmCGSAGG+EUBCAEwNAYIKwYBBQUHAQEE
KDAmMCQGCCsGAQUFBzABhhhodHRwOi8vb2NzcC52ZXJpc2lnbi5jb20wNAYDVR0f
BC0wKzApoCegJYYjaHR0cDovL2NybC52ZXJpc2lnbi5jb20vcGNhMy1nNS5jcmww
KAYDVR0RBCEwH6QdMBsxGTAXBgNVBAMTEFZlcmlTaWduTVBLSS0yLTcwHQYDVR0O
BBYEFNebfNgioBX33a1fzimbWMO8RgC1MB8GA1UdIwQYMBaAFH/TZafC3ey78DAJ
80M5+gKvMzEzMA0GCSqGSIb3DQEBBQUAA4IBAQBxtX1zUkrd1000Ky6vlEalSVAC
T/gvF3DyE9wfIYaqwk98NzzURniuXXhv0bpavBCrWDbFjGIVRWAXIeLVQqh3oVXY
QwRR9m66SOZdTLdE0z6k1dYzmp8N5tdOlkSVWmzWoxZTDphDzqS4w2Z6BVxiEOgb
Ett9LnZQ/9/XaxvMisxx+rNAVnwzeneUW/ULU/sOX7xo+68q7jA3eRaTJX9NEP9X
+79uOzMh3nnchhdZLUNkt6Zmh+q8lkYZGoaLb9e3SQBb26O/KZru99MzrqP0nkzK
XmnUG623kHdq2FlveasB+lXwiiFm5WVu/XzT3x7rfj8GkPsZC9MGAht4Q5mo
-----END CERTIFICATE-----
Certificate:
    Data:
        Version: 3 (0x2)
        Serial Number:
            64:1b:e8:20:ce:02:08:13:f3:2d:4d:2d:95:d6:7e:67
        Signature Algorithm: sha1WithRSAEncryption
        Issuer: C=US, O=VeriSign, Inc., OU=VeriSign Trust Network, OU=(c) 2006 VeriSign, Inc. - For authorized use only, CN=VeriSign Class 3 Public Primary Certification Authority - G5
        Validity
            Not Before: Feb  8 00:00:00 2010 GMT
            Not After : Feb  7 23:59:59 2020 GMT
        Subject: C=US, O=VeriSign, Inc., OU=VeriSign Trust Network, OU=Terms of use at https://www.verisign.com/rpa (c)10, CN=VeriSign Class 3 International Server CA - G3
        Subject Public Key Info:
            Public Key Algorithm: rsaEncryption
            RSA Public Key: (2048 bit)
                Modulus (2048 bit):
                    00:99:d6:9c:62:f0:15:f4:81:9a:41:08:59:8f:13:
                    9d:17:c9:9f:51:dc:da:b1:52:ef:ff:e3:41:dd:e0:
                    df:c4:28:c6:e3:ad:79:1f:27:10:98:b8:bb:20:97:
                    c1:28:44:41:0f:ea:a9:a8:52:cf:4d:4e:1b:8b:bb:
                    b5:c4:76:d9:cc:56:06:ee:b3:55:20:2a:de:15:8d:
                    71:cb:54:c8:6f:17:cd:89:00:e4:dc:ff:e1:c0:1f:
                    68:71:e9:c7:29:2e:7e:bc:3b:fc:e5:bb:ab:26:54:
                    8b:66:90:cd:f6:92:b9:31:24:80:bc:9e:6c:d5:fc:
                    7e:d2:e1:4b:8c:dc:42:fa:44:4b:5f:f8:18:b5:2e:
                    30:f4:3d:12:98:d3:62:05:73:54:a6:9c:a2:1d:be:
                    52:83:3a:07:46:c4:3b:02:56:21:bf:f2:51:4f:d0:
                    a6:99:39:e9:ae:a5:3f:89:9b:9c:7d:fe:4d:60:07:
                    25:20:f7:bb:d7:69:83:2b:82:93:43:37:d9:83:41:
                    1b:6b:0b:ab:4a:66:84:4f:4a:8e:de:7e:34:99:8e:
                    68:d6:ca:39:06:9b:4c:b3:9a:48:4d:13:46:b4:58:
                    21:04:c4:fb:a0:4d:ac:2e:4b:62:12:e3:fb:4d:f6:
                    c9:51:00:01:1f:fc:1e:6a:81:2a:38:e0:b9:4f:d6:
                    2d:45
                Exponent: 65537 (0x10001)
        X509v3 extensions:
            X509v3 Basic Constraints: critical
                CA:TRUE, pathlen:0
            X509v3 Certificate Policies: 
                Policy: 2.16.840.1.113733.1.7.23.3
                  CPS: https://www.verisign.com/cps
                  User Notice:
                    Explicit Text: https://www.verisign.com/rpa

            X509v3 Key Usage: critical
                Certificate Sign, CRL Sign
            1.3.6.1.5.5.7.1.12: 
                0_.].[0Y0W0U..image/gif0!0.0...+..............k...j.H.,{..0%.#http://logo.verisign.com/vslogo.gif
            X509v3 Extended Key Usage: 
                TLS Web Server Authentication, TLS Web Client Authentication, Netscape Server Gated Crypto, 2.16.840.1.113733.1.8.1
            Authority Information Access: 
                OCSP - URI:http://ocsp.verisign.com

            X509v3 CRL Distribution Points: 
                URI:http://crl.verisign.com/pca3-g5.crl

            X509v3 Subject Alternative Name: 
                DirName:/CN=VeriSignMPKI-2-7
            X509v3 Subject Key Identifier: 
                D7:9B:7C:D8:22:A0:15:F7:DD:AD:5F:CE:29:9B:58:C3:BC:46:00:B5
            X509v3 Authority Key Identifier: 
                keyid:7F:D3:65:A7:C2:DD:EC:BB:F0:30:09:F3:43:39:FA:02:AF:33:31:33

    Signature Algorithm: sha1WithRSAEncryption
        71:b5:7d:73:52:4a:dd:d7:4d:34:2b:2e:af:94:46:a5:49:50:
        02:4f:f8:2f:17:70:f2:13:dc:1f:21:86:aa:c2:4f:7c:37:3c:
        d4:46:78:ae:5d:78:6f:d1:ba:5a:bc:10:ab:58:36:c5:8c:62:
        15:45:60:17:21:e2:d5:42:a8:77:a1:55:d8:43:04:51:f6:6e:
        ba:48:e6:5d:4c:b7:44:d3:3e:a4:d5:d6:33:9a:9f:0d:e6:d7:
        4e:96:44:95:5a:6c:d6:a3:16:53:0e:98:43:ce:a4:b8:c3:66:
        7a:05:5c:62:10:e8:1b:12:db:7d:2e:76:50:ff:df:d7:6b:1b:
        cc:8a:cc:71:fa:b3:40:56:7c:33:7a:77:94:5b:f5:0b:53:fb:
        0e:5f:bc:68:fb:af:2a:ee:30:37:79:16:93:25:7f:4d:10:ff:
        57:fb:bf:6e:3b:33:21:de:79:dc:86:17:59:2d:43:64:b7:a6:
        66:87:ea:bc:96:46:19:1a:86:8b:6f:d7:b7:49:00:5b:db:a3:
        bf:29:9a:ee:f7:d3:33:ae:a3:f4:9e:4c:ca:5e:69:d4:1b:ad:
        b7:90:77:6a:d8:59:6f:79:ab:01:fa:55:f0:8a:21:66:e5:65:
        6e:fd:7c:d3:df:1e:eb:7e:3f:06:90:fb:19:0b:d3:06:02:1b:
        78:43:99:a8
SHA1 Fingerprint=B1:8D:9D:19:56:69:BA:0F:78:29:51:75:66:C2:5F:42:2A:27:71:04
